target datalayout = "e-m:e-p270:32:32-p271:32:32-p272:64:64-i64:64-i128:128-f80:128-n8:16:32:64-S128"
target triple = "x86_64-unknown-linux-gnu"

%"class.arrow::compute::SwissTable" = type { i32, i32, i32, %"class.std::shared_ptr", %"class.std::shared_ptr", i64, ptr }
%"class.std::shared_ptr" = type { %"class.std::__shared_ptr" }
%"class.std::__shared_ptr" = type { ptr, %"class.std::__shared_count" }
%"class.std::__shared_count" = type { ptr }

; Function Attrs: mustprogress nounwind uwtable
define internal noundef zeroext i1 @_ZN5arrow8bit_utilL6GetBitEPKhm(ptr noundef %bits, i64 noundef %i) #1 {
entry:
  %bits.addr = alloca ptr, align 8
  %i.addr = alloca i64, align 8
  store ptr %bits, ptr %bits.addr, align 8
  store i64 %i, ptr %i.addr, align 8
  %0 = load ptr, ptr %bits.addr, align 8
  %1 = load i64, ptr %i.addr, align 8
  %shr = lshr i64 %1, 3
  %arrayidx = getelementptr inbounds i8, ptr %0, i64 %shr
  %2 = load i8, ptr %arrayidx, align 1
  %conv = zext i8 %2 to i32
  %3 = load i64, ptr %i.addr, align 8
  %and = and i64 %3, 7
  %sh_prom = trunc i64 %and to i32
  %shr1 = ashr i32 %conv, %sh_prom
  %and2 = and i32 %shr1, 1
  %tobool = icmp ne i32 %and2, 0
  ret i1 %tobool
}

; Function Attrs: mustprogress uwtable
define void @_ZNK5arrow7compute10SwissTable13init_slot_idsEiPKtPKjPKhS7_Pj(ptr noundef nonnull align 8 dereferenceable(64) %this, i32 noundef %num_keys, ptr noundef %selection, ptr noundef %hashes, ptr noundef %local_slots, ptr noundef %match_bitvector, ptr noundef %out_slot_ids) #0 align 2 {
entry:
  %this.addr = alloca ptr, align 8
  %num_keys.addr = alloca i32, align 4
  %selection.addr = alloca ptr, align 8
  %hashes.addr = alloca ptr, align 8
  %local_slots.addr = alloca ptr, align 8
  %match_bitvector.addr = alloca ptr, align 8
  %out_slot_ids.addr = alloca ptr, align 8
  %i = alloca i32, align 4
  %id = alloca i16, align 2
  %match = alloca i32, align 4
  %slot_id = alloca i32, align 4
  %i11 = alloca i32, align 4
  %id15 = alloca i16, align 2
  %hash = alloca i32, align 4
  %iblock = alloca i32, align 4
  %match21 = alloca i32, align 4
  %slot_id25 = alloca i32, align 4
  store ptr %this, ptr %this.addr, align 8
  store i32 %num_keys, ptr %num_keys.addr, align 4
  store ptr %selection, ptr %selection.addr, align 8
  store ptr %hashes, ptr %hashes.addr, align 8
  store ptr %local_slots, ptr %local_slots.addr, align 8
  store ptr %match_bitvector, ptr %match_bitvector.addr, align 8
  store ptr %out_slot_ids, ptr %out_slot_ids.addr, align 8
  %this1 = load ptr, ptr %this.addr, align 8
  br label %while.cond

while.cond:                                       ; preds = %while.body, %entry
  br i1 false, label %while.body, label %while.end

while.body:                                       ; preds = %while.cond
  br label %while.cond, !llvm.loop !45

while.end:                                        ; preds = %while.cond
  br label %while.cond2

while.cond2:                                      ; preds = %while.body3, %while.end
  br i1 false, label %while.body3, label %while.end4

while.body3:                                      ; preds = %while.cond2
  br label %while.cond2, !llvm.loop !46

while.end4:                                       ; preds = %while.cond2
  %log_blocks_ = getelementptr inbounds %"class.arrow::compute::SwissTable", ptr %this1, i32 0, i32 1
  %0 = load i32, ptr %log_blocks_, align 4
  %cmp = icmp eq i32 %0, 0
  br i1 %cmp, label %if.then, label %if.else

if.then:                                          ; preds = %while.end4
  store i32 0, ptr %i, align 4
  br label %for.cond

for.cond:                                         ; preds = %for.inc, %if.then
  %1 = load i32, ptr %i, align 4
  %2 = load i32, ptr %num_keys.addr, align 4
  %cmp5 = icmp slt i32 %1, %2
  br i1 %cmp5, label %for.body, label %for.end

for.body:                                         ; preds = %for.cond
  %3 = load ptr, ptr %selection.addr, align 8
  %4 = load i32, ptr %i, align 4
  %idxprom = sext i32 %4 to i64
  %arrayidx = getelementptr inbounds i16, ptr %3, i64 %idxprom
  %5 = load i16, ptr %arrayidx, align 2
  store i16 %5, ptr %id, align 2
  %6 = load ptr, ptr %match_bitvector.addr, align 8
  %7 = load i16, ptr %id, align 2
  %conv = zext i16 %7 to i64
  %call = call noundef zeroext i1 @_ZN5arrow8bit_utilL6GetBitEPKhm(ptr noundef %6, i64 noundef %conv)
  %cond = select i1 %call, i32 1, i32 0
  store i32 %cond, ptr %match, align 4
  %8 = load ptr, ptr %local_slots.addr, align 8
  %9 = load i16, ptr %id, align 2
  %idxprom6 = zext i16 %9 to i64
  %arrayidx7 = getelementptr inbounds i8, ptr %8, i64 %idxprom6
  %10 = load i8, ptr %arrayidx7, align 1
  %conv8 = zext i8 %10 to i32
  %11 = load i32, ptr %match, align 4
  %add = add i32 %conv8, %11
  store i32 %add, ptr %slot_id, align 4
  %12 = load i32, ptr %slot_id, align 4
  %13 = load ptr, ptr %out_slot_ids.addr, align 8
  %14 = load i16, ptr %id, align 2
  %idxprom9 = zext i16 %14 to i64
  %arrayidx10 = getelementptr inbounds i32, ptr %13, i64 %idxprom9
  store i32 %12, ptr %arrayidx10, align 4
  br label %for.inc

for.inc:                                          ; preds = %for.body
  %15 = load i32, ptr %i, align 4
  %inc = add nsw i32 %15, 1
  store i32 %inc, ptr %i, align 4
  br label %for.cond, !llvm.loop !47

for.end:                                          ; preds = %for.cond
  br label %if.end

if.else:                                          ; preds = %while.end4
  store i32 0, ptr %i11, align 4
  br label %for.cond12

for.cond12:                                       ; preds = %for.inc33, %if.else
  %16 = load i32, ptr %i11, align 4
  %17 = load i32, ptr %num_keys.addr, align 4
  %cmp13 = icmp slt i32 %16, %17
  br i1 %cmp13, label %for.body14, label %for.end35

for.body14:                                       ; preds = %for.cond12
  %18 = load ptr, ptr %selection.addr, align 8
  %19 = load i32, ptr %i11, align 4
  %idxprom16 = sext i32 %19 to i64
  %arrayidx17 = getelementptr inbounds i16, ptr %18, i64 %idxprom16
  %20 = load i16, ptr %arrayidx17, align 2
  store i16 %20, ptr %id15, align 2
  %21 = load ptr, ptr %hashes.addr, align 8
  %22 = load i16, ptr %id15, align 2
  %idxprom18 = zext i16 %22 to i64
  %arrayidx19 = getelementptr inbounds i32, ptr %21, i64 %idxprom18
  %23 = load i32, ptr %arrayidx19, align 4
  store i32 %23, ptr %hash, align 4
  %24 = load i32, ptr %hash, align 4
  %log_blocks_20 = getelementptr inbounds %"class.arrow::compute::SwissTable", ptr %this1, i32 0, i32 1
  %25 = load i32, ptr %log_blocks_20, align 4
  %sub = sub nsw i32 32, %25
  %shr = lshr i32 %24, %sub
  store i32 %shr, ptr %iblock, align 4
  %26 = load ptr, ptr %match_bitvector.addr, align 8
  %27 = load i16, ptr %id15, align 2
  %conv22 = zext i16 %27 to i64
  %call23 = call noundef zeroext i1 @_ZN5arrow8bit_utilL6GetBitEPKhm(ptr noundef %26, i64 noundef %conv22)
  %cond24 = select i1 %call23, i32 1, i32 0
  store i32 %cond24, ptr %match21, align 4
  %28 = load i32, ptr %iblock, align 4
  %mul = mul i32 %28, 8
  %29 = load ptr, ptr %local_slots.addr, align 8
  %30 = load i16, ptr %id15, align 2
  %idxprom26 = zext i16 %30 to i64
  %arrayidx27 = getelementptr inbounds i8, ptr %29, i64 %idxprom26
  %31 = load i8, ptr %arrayidx27, align 1
  %conv28 = zext i8 %31 to i32
  %add29 = add i32 %mul, %conv28
  %32 = load i32, ptr %match21, align 4
  %add30 = add i32 %add29, %32
  store i32 %add30, ptr %slot_id25, align 4
  %33 = load i32, ptr %slot_id25, align 4
  %34 = load ptr, ptr %out_slot_ids.addr, align 8
  %35 = load i16, ptr %id15, align 2
  %idxprom31 = zext i16 %35 to i64
  %arrayidx32 = getelementptr inbounds i32, ptr %34, i64 %idxprom31
  store i32 %33, ptr %arrayidx32, align 4
  br label %for.inc33

for.inc33:                                        ; preds = %for.body14
  %36 = load i32, ptr %i11, align 4
  %inc34 = add nsw i32 %36, 1
  store i32 %inc34, ptr %i11, align 4
  br label %for.cond12, !llvm.loop !48

for.end35:                                        ; preds = %for.cond12
  br label %if.end

if.end:                                           ; preds = %for.end35, %for.end
  ret void
}