; Function Attrs: mustprogress nofree norecurse nosync nounwind memory(argmem: readwrite) uwtable
define void @_ZNK5arrow7compute10SwissTable13init_slot_idsEiPKtPKjPKhS7_Pj(ptr nocapture noundef nonnull readonly align 8 dereferenceable(64) %this, i32 noundef %num_keys, ptr nocapture noundef readonly %selection, ptr nocapture noundef readonly %hashes, ptr nocapture noundef readonly %local_slots, ptr nocapture noundef readonly %match_bitvector, ptr nocapture noundef writeonly %out_slot_ids) local_unnamed_addr #2 align 2 {
entry:
  %log_blocks_ = getelementptr inbounds i8, ptr %this, i64 4
  %0 = load i32, ptr %log_blocks_, align 4
  %cmp = icmp eq i32 %0, 0
  %cmp523 = icmp sgt i32 %num_keys, 0
  br i1 %cmp, label %for.cond.preheader, label %for.cond12.preheader

for.cond12.preheader:                             ; preds = %entry
  br i1 %cmp523, label %for.body14.preheader, label %if.end

for.body14.preheader:                             ; preds = %for.cond12.preheader
  %wide.trip.count = zext nneg i32 %num_keys to i64
  br label %for.body14

for.cond.preheader:                               ; preds = %entry
  br i1 %cmp523, label %for.body.preheader, label %if.end

for.body.preheader:                               ; preds = %for.cond.preheader
  %wide.trip.count30 = zext nneg i32 %num_keys to i64
  br label %for.body

for.body:                                         ; preds = %for.body.preheader, %for.body
  %indvars.iv27 = phi i64 [ 0, %for.body.preheader ], [ %indvars.iv.next28, %for.body ]
  %arrayidx = getelementptr inbounds i16, ptr %selection, i64 %indvars.iv27
  %1 = load i16, ptr %arrayidx, align 2
  %conv = zext i16 %1 to i64
  %shr.i = lshr i64 %conv, 3
  %arrayidx.i = getelementptr inbounds i8, ptr %match_bitvector, i64 %shr.i
  %2 = load i8, ptr %arrayidx.i, align 1
  %conv.i = zext i8 %2 to i32
  %3 = and i16 %1, 7
  %sh_prom.i = zext nneg i16 %3 to i32
  %4 = lshr i32 %conv.i, %sh_prom.i
  %cond = and i32 %4, 1
  %arrayidx7 = getelementptr inbounds i8, ptr %local_slots, i64 %conv
  %5 = load i8, ptr %arrayidx7, align 1
  %conv8 = zext i8 %5 to i32
  %add = add nuw nsw i32 %cond, %conv8
  %arrayidx10 = getelementptr inbounds i32, ptr %out_slot_ids, i64 %conv
  store i32 %add, ptr %arrayidx10, align 4
  %indvars.iv.next28 = add nuw nsw i64 %indvars.iv27, 1
  %exitcond31.not = icmp eq i64 %indvars.iv.next28, %wide.trip.count30
  br i1 %exitcond31.not, label %if.end, label %for.body, !llvm.loop !17

for.body14:                                       ; preds = %for.body14.preheader, %for.body14
  %indvars.iv = phi i64 [ 0, %for.body14.preheader ], [ %indvars.iv.next, %for.body14 ]
  %arrayidx17 = getelementptr inbounds i16, ptr %selection, i64 %indvars.iv
  %6 = load i16, ptr %arrayidx17, align 2
  %idxprom18 = zext i16 %6 to i64
  %arrayidx19 = getelementptr inbounds i32, ptr %hashes, i64 %idxprom18
  %7 = load i32, ptr %arrayidx19, align 4
  %8 = load i32, ptr %log_blocks_, align 4
  %sub = sub nsw i32 32, %8
  %shr = lshr i32 %7, %sub
  %shr.i15 = lshr i64 %idxprom18, 3
  %arrayidx.i16 = getelementptr inbounds i8, ptr %match_bitvector, i64 %shr.i15
  %9 = load i8, ptr %arrayidx.i16, align 1
  %conv.i17 = zext i8 %9 to i32
  %10 = and i16 %6, 7
  %sh_prom.i18 = zext nneg i16 %10 to i32
  %11 = lshr i32 %conv.i17, %sh_prom.i18
  %cond24 = and i32 %11, 1
  %mul = shl i32 %shr, 3
  %arrayidx27 = getelementptr inbounds i8, ptr %local_slots, i64 %idxprom18
  %12 = load i8, ptr %arrayidx27, align 1
  %conv28 = zext i8 %12 to i32
  %add29 = add i32 %mul, %conv28
  %add30 = add i32 %add29, %cond24
  %arrayidx32 = getelementptr inbounds i32, ptr %out_slot_ids, i64 %idxprom18
  store i32 %add30, ptr %arrayidx32, align 4
  %indvars.iv.next = add nuw nsw i64 %indvars.iv, 1
  %exitcond.not = icmp eq i64 %indvars.iv.next, %wide.trip.count
  br i1 %exitcond.not, label %if.end, label %for.body14, !llvm.loop !18

if.end:                                           ; preds = %for.body14, %for.body, %for.cond12.preheader, %for.cond.preheader
  ret void
}